target datalayout = "e-m:e-p270:32:32-p271:32:32-p272:64:64-i64:64-i128:128-f80:128-n8:16:32:64-S128"
target triple = "x86_64-pc-linux-gnu"

%struct.OSQPSolver = type { ptr, ptr, ptr, ptr }
%struct.OSQPWorkspace_ = type { ptr, ptr, ptr, ptr, ptr, ptr, ptr, ptr, ptr, ptr, ptr, ptr, ptr, ptr, ptr, ptr, ptr, ptr, ptr, ptr, ptr, ptr, ptr, ptr, ptr, ptr, double, double, double, ptr, i64, i64, i64, i64, ptr }
%struct.OSQPData = type { i64, i64, ptr, ptr, ptr, ptr, ptr }
%struct.OSQPSettings = type { i64, i32, i64, i64, i64, i64, i64, i64, double, i64, double, double, i64, i64, double, i32, i64, i64, double, double, i64, double, double, double, double, i64, i64, double, double, i64 }
%struct.OSQPScaling = type { double, ptr, ptr, double, ptr, ptr }

; Function Attrs: nounwind uwtable
define double @compute_obj_val(ptr noundef %0, ptr noundef %1) #0 {
  %3 = alloca ptr, align 8
  %4 = alloca ptr, align 8
  %5 = alloca double, align 8
  %6 = alloca ptr, align 8
  store ptr %0, ptr %3, align 8
  store ptr %1, ptr %4, align 8
  %7 = load ptr, ptr %3, align 8
  %8 = getelementptr inbounds %struct.OSQPSolver, ptr %7, i32 0, i32 3
  %9 = load ptr, ptr %8, align 8
  store ptr %9, ptr %6, align 8
  %10 = load ptr, ptr %6, align 8
  %11 = getelementptr inbounds %struct.OSQPWorkspace_, ptr %10, i32 0, i32 15
  %12 = load ptr, ptr %11, align 8
  %13 = load ptr, ptr %4, align 8
  %14 = call double @OSQPVectorf_dot_prod(ptr noundef %12, ptr noundef %13)
  %15 = load ptr, ptr %6, align 8
  %16 = getelementptr inbounds %struct.OSQPWorkspace_, ptr %15, i32 0, i32 0
  %17 = load ptr, ptr %16, align 8
  %18 = getelementptr inbounds %struct.OSQPData, ptr %17, i32 0, i32 4
  %19 = load ptr, ptr %18, align 8
  %20 = load ptr, ptr %4, align 8
  %21 = call double @OSQPVectorf_dot_prod(ptr noundef %19, ptr noundef %20)
  %22 = call double @llvm.fmuladd.f64(double 5.000000e-01, double %14, double %21)
  store double %22, ptr %5, align 8
  %23 = load ptr, ptr %3, align 8
  %24 = getelementptr inbounds %struct.OSQPSolver, ptr %23, i32 0, i32 0
  %25 = load ptr, ptr %24, align 8
  %26 = getelementptr inbounds %struct.OSQPSettings, ptr %25, i32 0, i32 6
  %27 = load i64, ptr %26, align 8
  %28 = icmp ne i64 %27, 0
  br i1 %28, label %29, label %37

29:                                               ; preds = %2
  %30 = load ptr, ptr %6, align 8
  %31 = getelementptr inbounds %struct.OSQPWorkspace_, ptr %30, i32 0, i32 25
  %32 = load ptr, ptr %31, align 8
  %33 = getelementptr inbounds %struct.OSQPScaling, ptr %32, i32 0, i32 3
  %34 = load double, ptr %33, align 8
  %35 = load double, ptr %5, align 8
  %36 = fmul double %35, %34
  store double %36, ptr %5, align 8
  br label %37

37:                                               ; preds = %29, %2
  %38 = load double, ptr %5, align 8
  ret double %38
}