; Function Attrs: nounwind uwtable
define double @compute_obj_val(ptr noundef readonly captures(none) %0, ptr noundef %1) local_unnamed_addr #0 {
  %3 = getelementptr inbounds nuw i8, ptr %0, i64 24
  %4 = load ptr, ptr %3, align 8
  %5 = getelementptr inbounds nuw i8, ptr %4, i64 120
  %6 = load ptr, ptr %5, align 8
  %7 = tail call double @OSQPVectorf_dot_prod(ptr noundef %6, ptr noundef %1) #9
  %8 = load ptr, ptr %4, align 8
  %9 = getelementptr inbounds nuw i8, ptr %8, i64 32
  %10 = load ptr, ptr %9, align 8
  %11 = tail call double @OSQPVectorf_dot_prod(ptr noundef %10, ptr noundef %1) #9
  %12 = tail call double @llvm.fmuladd.f64(double %7, double 5.000000e-01, double %11)
  %13 = load ptr, ptr %0, align 8
  %14 = getelementptr inbounds nuw i8, ptr %13, i64 48
  %15 = load i64, ptr %14, align 8
  %.not = icmp eq i64 %15, 0
  br i1 %.not, label %22, label %16

16:                                               ; preds = %2
  %17 = getelementptr inbounds nuw i8, ptr %4, i64 200
  %18 = load ptr, ptr %17, align 8
  %19 = getelementptr inbounds nuw i8, ptr %18, i64 24
  %20 = load double, ptr %19, align 8
  %21 = fmul double %12, %20
  br label %22

22:                                               ; preds = %16, %2
  %.0 = phi double [ %21, %16 ], [ %12, %2 ]
  ret double %.0
}